target datalayout = "e-m:e-p270:32:32-p271:32:32-p272:64:64-i64:64-i128:128-f80:128-n8:16:32:64-S128"
target triple = "x86_64-pc-linux-gnu"

%struct.H5FA_hdr_t = type { %struct.H5C_cache_entry_t, %struct.H5FA_create_t, i64, %struct.H5FA_stat_t, i64, i64, i64, ptr, i64, i8, i64, i64, ptr, i8, ptr, ptr }
%struct.H5C_cache_entry_t = type { ptr, i64, i64, ptr, i8, ptr, i8, i8, i8, i8, i32, i8, i8, i8, i8, i8, i32, ptr, i32, i32, i32, i32, i32, i8, i8, ptr, ptr, ptr, ptr, ptr, ptr, i8, i32, i8, i64, ptr, i64, i64, i32, i8, i32, i32, i8, ptr, ptr, ptr }
%struct.H5FA_create_t = type { ptr, i8, i8, i64 }
%struct.H5FA_stat_t = type { i64, i64, i64 }
%struct.H5FA_class_t = type { i32, ptr, i64, ptr, ptr, ptr, ptr, ptr, ptr, ptr, ptr }

@H5FA_init_g = external global i8, align 1
@H5_libterm_g = external global i8, align 1
@.str = private unnamed_addr constant [101 x i8] c"generated/home/dtcxzyw/WorkSpace/Projects/compilers/llvm-opt-benchmark/bench/hdf5/hdf5/src/H5FAhdr.c\00", align 1
@H5E_FARRAY_g = external global i64, align 8
@__func__.H5FA__hdr_dest = private unnamed_addr constant [15 x i8] c"H5FA__hdr_dest\00", align 1
@H5E_CANTRELEASE_g = external global i64, align 8
@.str.19 = private unnamed_addr constant [54 x i8] c"unable to destroy fixed array client callback context\00", align 1
@.str.20 = private unnamed_addr constant [42 x i8] c"unable to destroy fixed array 'top' proxy\00", align 1
@H5_H5FA_hdr_t_reg_free_list = internal global { i8, [3 x i8], i32, i32, [4 x i8], ptr, i64, ptr } { i8 0, [3 x i8] zeroinitializer, i32 0, i32 0, [4 x i8] zeroinitializer, ptr @.str.21, i64 400, ptr null }, align 8

; Function Attrs: nounwind uwtable
define i32 @H5FA__hdr_dest(ptr noundef %0) #0 {
  %2 = alloca ptr, align 8
  %3 = alloca i32, align 4
  %4 = alloca i8, align 1
  store ptr %0, ptr %2, align 8, !tbaa !8
  call void @llvm.lifetime.start.p0(i64 4, ptr %3) #5
  store i32 0, ptr %3, align 4, !tbaa !34
  call void @llvm.lifetime.start.p0(i64 1, ptr %4) #5
  store i8 0, ptr %4, align 1, !tbaa !10
  %5 = load i8, ptr @H5FA_init_g, align 1, !tbaa !10, !range !12, !noundef !13
  %6 = trunc i8 %5 to i1
  br i1 %6, label %11, label %7

7:                                                ; preds = %1
  %8 = load i8, ptr @H5_libterm_g, align 1, !tbaa !10, !range !12, !noundef !13
  %9 = trunc i8 %8 to i1
  %10 = xor i1 %9, true
  br label %11

11:                                               ; preds = %7, %1
  %12 = phi i1 [ true, %1 ], [ %10, %7 ]
  %13 = xor i1 %12, true
  %14 = xor i1 %13, true
  %15 = zext i1 %14 to i32
  %16 = sext i32 %15 to i64
  %17 = call i64 @llvm.expect.i64(i64 %16, i64 1)
  %18 = icmp ne i64 %17, 0
  br i1 %18, label %19, label %95

19:                                               ; preds = %11
  %20 = load ptr, ptr %2, align 8, !tbaa !8
  %21 = getelementptr inbounds nuw %struct.H5FA_hdr_t, ptr %20, i32 0, i32 12
  %22 = load ptr, ptr %21, align 8, !tbaa !35
  %23 = icmp ne ptr %22, null
  br i1 %23, label %24, label %56

24:                                               ; preds = %19
  %25 = load ptr, ptr %2, align 8, !tbaa !8
  %26 = getelementptr inbounds nuw %struct.H5FA_hdr_t, ptr %25, i32 0, i32 1
  %27 = getelementptr inbounds nuw %struct.H5FA_create_t, ptr %26, i32 0, i32 0
  %28 = load ptr, ptr %27, align 8, !tbaa !36
  %29 = getelementptr inbounds nuw %struct.H5FA_class_t, ptr %28, i32 0, i32 4
  %30 = load ptr, ptr %29, align 8, !tbaa !37
  %31 = load ptr, ptr %2, align 8, !tbaa !8
  %32 = getelementptr inbounds nuw %struct.H5FA_hdr_t, ptr %31, i32 0, i32 12
  %33 = load ptr, ptr %32, align 8, !tbaa !35
  %34 = call i32 %30(ptr noundef %33)
  %35 = icmp slt i32 %34, 0
  br i1 %35, label %36, label %55

36:                                               ; preds = %24
  br label %37

37:                                               ; preds = %36
  br label %38

38:                                               ; preds = %37
  br label %39

39:                                               ; preds = %38
  %40 = load i64, ptr @H5E_FARRAY_g, align 8, !tbaa !14
  %41 = load i64, ptr @H5E_CANTRELEASE_g, align 8, !tbaa !14
  %42 = call i32 (ptr, ptr, i32, i64, i64, ptr, ...) @H5E_printf_stack(ptr noundef @.str, ptr noundef @__func__.H5FA__hdr_dest, i32 noundef 552, i64 noundef %40, i64 noundef %41, ptr noundef @.str.19)
  br label %43

43:                                               ; preds = %39
  br label %44

44:                                               ; preds = %43
  store i8 1, ptr %4, align 1, !tbaa !10
  %45 = load i8, ptr %4, align 1, !tbaa !10, !range !12, !noundef !13
  %46 = trunc i8 %45 to i1
  %47 = zext i1 %46 to i8
  store i8 %47, ptr %4, align 1, !tbaa !10
  br label %48

48:                                               ; preds = %44
  br label %49

49:                                               ; preds = %48
  br label %50

50:                                               ; preds = %49
  store i32 -1, ptr %3, align 4, !tbaa !34
  br label %94

51:                                               ; No predecessors!
  br label %52

52:                                               ; preds = %51
  br label %53

53:                                               ; preds = %52
  br label %54

54:                                               ; preds = %53
  br label %55

55:                                               ; preds = %54, %24
  br label %56

56:                                               ; preds = %55, %19
  %57 = load ptr, ptr %2, align 8, !tbaa !8
  %58 = getelementptr inbounds nuw %struct.H5FA_hdr_t, ptr %57, i32 0, i32 12
  store ptr null, ptr %58, align 8, !tbaa !35
  %59 = load ptr, ptr %2, align 8, !tbaa !8
  %60 = getelementptr inbounds nuw %struct.H5FA_hdr_t, ptr %59, i32 0, i32 14
  %61 = load ptr, ptr %60, align 8, !tbaa !40
  %62 = icmp ne ptr %61, null
  br i1 %62, label %63, label %91

63:                                               ; preds = %56
  %64 = load ptr, ptr %2, align 8, !tbaa !8
  %65 = getelementptr inbounds nuw %struct.H5FA_hdr_t, ptr %64, i32 0, i32 14
  %66 = load ptr, ptr %65, align 8, !tbaa !40
  %67 = call i32 @H5AC_proxy_entry_dest(ptr noundef %66)
  %68 = icmp slt i32 %67, 0
  br i1 %68, label %69, label %88

69:                                               ; preds = %63
  br label %70

70:                                               ; preds = %69
  br label %71

71:                                               ; preds = %70
  br label %72

72:                                               ; preds = %71
  %73 = load i64, ptr @H5E_FARRAY_g, align 8, !tbaa !14
  %74 = load i64, ptr @H5E_CANTRELEASE_g, align 8, !tbaa !14
  %75 = call i32 (ptr, ptr, i32, i64, i64, ptr, ...) @H5E_printf_stack(ptr noundef @.str, ptr noundef @__func__.H5FA__hdr_dest, i32 noundef 559, i64 noundef %73, i64 noundef %74, ptr noundef @.str.20)
  br label %76

76:                                               ; preds = %72
  br label %77

77:                                               ; preds = %76
  store i8 1, ptr %4, align 1, !tbaa !10
  %78 = load i8, ptr %4, align 1, !tbaa !10, !range !12, !noundef !13
  %79 = trunc i8 %78 to i1
  %80 = zext i1 %79 to i8
  store i8 %80, ptr %4, align 1, !tbaa !10
  br label %81

81:                                               ; preds = %77
  br label %82

82:                                               ; preds = %81
  br label %83

83:                                               ; preds = %82
  store i32 -1, ptr %3, align 4, !tbaa !34
  br label %94

84:                                               ; No predecessors!
  br label %85

85:                                               ; preds = %84
  br label %86

86:                                               ; preds = %85
  br label %87

87:                                               ; preds = %86
  br label %88

88:                                               ; preds = %87, %63
  %89 = load ptr, ptr %2, align 8, !tbaa !8
  %90 = getelementptr inbounds nuw %struct.H5FA_hdr_t, ptr %89, i32 0, i32 14
  store ptr null, ptr %90, align 8, !tbaa !40
  br label %91

91:                                               ; preds = %88, %56
  %92 = load ptr, ptr %2, align 8, !tbaa !8
  %93 = call ptr @H5FL_reg_free(ptr noundef @H5_H5FA_hdr_t_reg_free_list, ptr noundef %92)
  store ptr %93, ptr %2, align 8, !tbaa !8
  br label %94

94:                                               ; preds = %91, %83, %50
  br label %95

95:                                               ; preds = %94, %11
  %96 = load i32, ptr %3, align 4, !tbaa !34
  call void @llvm.lifetime.end.p0(i64 1, ptr %4) #5
  call void @llvm.lifetime.end.p0(i64 4, ptr %3) #5
  ret i32 %96
}