; Function Attrs: nounwind uwtable
define range(i32 -1, 1) i32 @H5FA__hdr_dest(ptr noundef %0) local_unnamed_addr #0 {
  %2 = load i8, ptr @H5FA_init_g, align 1, !tbaa !3, !range !7, !noundef !8
  %3 = trunc nuw i8 %2 to i1
  %4 = load i8, ptr @H5_libterm_g, align 1, !range !7
  %5 = trunc nuw i8 %4 to i1
  %6 = xor i1 %5, true
  %7 = select i1 %3, i1 true, i1 %6
  br i1 %7, label %8, label %35, !prof !9

8:                                                ; preds = %1
  %9 = getelementptr inbounds nuw i8, ptr %0, i64 368
  %10 = load ptr, ptr %9, align 8, !tbaa !32
  %.not = icmp eq ptr %10, null
  br i1 %.not, label %22, label %11

11:                                               ; preds = %8
  %12 = getelementptr inbounds nuw i8, ptr %0, i64 248
  %13 = load ptr, ptr %12, align 8, !tbaa !33
  %14 = getelementptr inbounds nuw i8, ptr %13, i64 32
  %15 = load ptr, ptr %14, align 8, !tbaa !34
  %16 = tail call i32 %15(ptr noundef nonnull %10) #5
  %17 = icmp slt i32 %16, 0
  br i1 %17, label %18, label %22

18:                                               ; preds = %11
  %19 = load i64, ptr @H5E_FARRAY_g, align 8, !tbaa !10
  %20 = load i64, ptr @H5E_CANTRELEASE_g, align 8, !tbaa !10
  %21 = tail call i32 (ptr, ptr, i32, i64, i64, ptr, ...) @H5E_printf_stack(ptr noundef nonnull @.str, ptr noundef nonnull @__func__.H5FA__hdr_dest, i32 noundef 552, i64 noundef %19, i64 noundef %20, ptr noundef nonnull @.str.19) #5
  br label %35

22:                                               ; preds = %11, %8
  store ptr null, ptr %9, align 8, !tbaa !32
  %23 = getelementptr inbounds nuw i8, ptr %0, i64 384
  %24 = load ptr, ptr %23, align 8, !tbaa !37
  %.not12 = icmp eq ptr %24, null
  br i1 %.not12, label %33, label %25

25:                                               ; preds = %22
  %26 = tail call i32 @H5AC_proxy_entry_dest(ptr noundef nonnull %24) #5
  %27 = icmp slt i32 %26, 0
  br i1 %27, label %28, label %32

28:                                               ; preds = %25
  %29 = load i64, ptr @H5E_FARRAY_g, align 8, !tbaa !10
  %30 = load i64, ptr @H5E_CANTRELEASE_g, align 8, !tbaa !10
  %31 = tail call i32 (ptr, ptr, i32, i64, i64, ptr, ...) @H5E_printf_stack(ptr noundef nonnull @.str, ptr noundef nonnull @__func__.H5FA__hdr_dest, i32 noundef 559, i64 noundef %29, i64 noundef %30, ptr noundef nonnull @.str.20) #5
  br label %35

32:                                               ; preds = %25
  store ptr null, ptr %23, align 8, !tbaa !37
  br label %33

33:                                               ; preds = %32, %22
  %34 = tail call ptr @H5FL_reg_free(ptr noundef nonnull @H5_H5FA_hdr_t_reg_free_list, ptr noundef nonnull %0) #5
  br label %35

35:                                               ; preds = %18, %28, %33, %1
  %.0 = phi i32 [ -1, %18 ], [ -1, %28 ], [ 0, %33 ], [ 0, %1 ]
  ret i32 %.0
}